target datalayout = "e-m:e-p270:32:32-p271:32:32-p272:64:64-i64:64-i128:128-f80:128-n8:16:32:64-S128"
target triple = "x86_64-pc-linux-gnu"

%"class.ncnn::DataReaderFromStdio" = type { %"class.ncnn::DataReader", ptr }
%"class.ncnn::DataReader" = type { ptr }

@stderr = external global ptr, align 8
@.str.3 = private unnamed_addr constant [2 x i8] c"\0A\00", align 1
@.str.43 = private unnamed_addr constant [3 x i8] c"rb\00", align 1
@.str.44 = private unnamed_addr constant [16 x i8] c"fopen %s failed\00", align 1

; Function Attrs: mustprogress uwtable
define hidden noundef i32 @_ZN4ncnn3Net10load_paramEP8_IO_FILE(ptr noundef nonnull align 8 dereferenceable(80) %0, ptr noundef %1) #1 align 2 personality ptr @__gxx_personality_v0 {
  %3 = alloca ptr, align 8
  %4 = alloca ptr, align 8
  %5 = alloca %"class.ncnn::DataReaderFromStdio", align 8
  %6 = alloca ptr, align 8
  %7 = alloca i32, align 4
  store ptr %0, ptr %3, align 8, !tbaa !4
  store ptr %1, ptr %4, align 8, !tbaa !264
  %8 = load ptr, ptr %3, align 8
  call void @llvm.lifetime.start.p0(i64 16, ptr %5) #16
  %9 = load ptr, ptr %4, align 8, !tbaa !264
  call void @_ZN4ncnn19DataReaderFromStdioC1EP8_IO_FILE(ptr noundef nonnull align 8 dereferenceable(16) %5, ptr noundef %9)
  %10 = invoke noundef i32 @_ZN4ncnn3Net10load_paramERKNS_10DataReaderE(ptr noundef nonnull align 8 dereferenceable(80) %8, ptr noundef nonnull align 8 dereferenceable(8) %5)
          to label %11 unwind label %12

11:                                               ; preds = %2
  call void @_ZN4ncnn19DataReaderFromStdioD1Ev(ptr noundef nonnull align 8 dereferenceable(16) %5) #16
  call void @llvm.lifetime.end.p0(i64 16, ptr %5) #16
  ret i32 %10

12:                                               ; preds = %2
  %13 = landingpad { ptr, i32 }
          cleanup
  %14 = extractvalue { ptr, i32 } %13, 0
  store ptr %14, ptr %6, align 8
  %15 = extractvalue { ptr, i32 } %13, 1
  store i32 %15, ptr %7, align 4
  call void @_ZN4ncnn19DataReaderFromStdioD1Ev(ptr noundef nonnull align 8 dereferenceable(16) %5) #16
  call void @llvm.lifetime.end.p0(i64 16, ptr %5) #16
  br label %16

16:                                               ; preds = %12
  %17 = load ptr, ptr %6, align 8
  %18 = load i32, ptr %7, align 4
  %19 = insertvalue { ptr, i32 } poison, ptr %17, 0
  %20 = insertvalue { ptr, i32 } %19, i32 %18, 1
  resume { ptr, i32 } %20
}

; Function Attrs: mustprogress uwtable
define hidden noundef i32 @_ZN4ncnn3Net10load_paramEPKc(ptr noundef nonnull align 8 dereferenceable(80) %0, ptr noundef %1) #1 align 2 {
  %3 = alloca i32, align 4
  %4 = alloca ptr, align 8
  %5 = alloca ptr, align 8
  %6 = alloca ptr, align 8
  %7 = alloca i32, align 4
  %8 = alloca i32, align 4
  store ptr %0, ptr %4, align 8, !tbaa !4
  store ptr %1, ptr %5, align 8, !tbaa !9
  %9 = load ptr, ptr %4, align 8
  call void @llvm.lifetime.start.p0(i64 8, ptr %6) #16
  %10 = load ptr, ptr %5, align 8, !tbaa !9
  %11 = call noalias ptr @fopen(ptr noundef %10, ptr noundef @.str.43)
  store ptr %11, ptr %6, align 8, !tbaa !264
  %12 = load ptr, ptr %6, align 8, !tbaa !264
  %13 = icmp ne ptr %12, null
  br i1 %13, label %23, label %14

14:                                               ; preds = %2
  br label %15

15:                                               ; preds = %14
  %16 = load ptr, ptr @stderr, align 8, !tbaa !264
  %17 = load ptr, ptr %5, align 8, !tbaa !9
  %18 = call i32 (ptr, ptr, ...) @fprintf(ptr noundef %16, ptr noundef @.str.44, ptr noundef %17) #16
  %19 = load ptr, ptr @stderr, align 8, !tbaa !264
  %20 = call i32 (ptr, ptr, ...) @fprintf(ptr noundef %19, ptr noundef @.str.3) #16
  br label %21

21:                                               ; preds = %15
  br label %22

22:                                               ; preds = %21
  store i32 -1, ptr %3, align 4
  store i32 1, ptr %7, align 4
  br label %29

23:                                               ; preds = %2
  call void @llvm.lifetime.start.p0(i64 4, ptr %8) #16
  %24 = load ptr, ptr %6, align 8, !tbaa !264
  %25 = call noundef i32 @_ZN4ncnn3Net10load_paramEP8_IO_FILE(ptr noundef nonnull align 8 dereferenceable(80) %9, ptr noundef %24)
  store i32 %25, ptr %8, align 4, !tbaa !26
  %26 = load ptr, ptr %6, align 8, !tbaa !264
  %27 = call i32 @fclose(ptr noundef %26)
  %28 = load i32, ptr %8, align 4, !tbaa !26
  store i32 %28, ptr %3, align 4
  store i32 1, ptr %7, align 4
  call void @llvm.lifetime.end.p0(i64 4, ptr %8) #16
  br label %29

29:                                               ; preds = %23, %22
  call void @llvm.lifetime.end.p0(i64 8, ptr %6) #16
  %30 = load i32, ptr %3, align 4
  ret i32 %30
}